target datalayout = "e-m:e-p270:32:32-p271:32:32-p272:64:64-i64:64-i128:128-f80:128-n8:16:32:64-S128"
target triple = "x86_64-pc-linux-gnu"

%struct.TT_FaceRec_ = type { %struct.FT_FaceRec_, %struct.TTC_HeaderRec_, i64, i16, ptr, %struct.TT_Header_, %struct.TT_HoriHeader_, %struct.TT_MaxProfile_, i8, %struct.TT_VertHeader_, i16, %struct.TT_NameTableRec_, %struct.TT_OS2_, %struct.TT_Postscript_, ptr, i64, ptr, ptr, ptr, ptr, ptr, ptr, ptr, ptr, ptr, ptr, ptr, ptr, %struct.TT_Gasp_, %struct.TT_PCLT_, i64, ptr, %struct.TT_Post_NamesRec_, %struct.FT_Palette_Data_, i16, ptr, i8, %struct.FT_Color_, i64, ptr, i64, ptr, i64, ptr, ptr, %struct.FT_Generic_, ptr, i64, i64, i8, i8, ptr, i32, ptr, i32, i32, ptr, i64, i64, i64, ptr, ptr, i64, i32, i64, ptr, ptr, i64, i32, i32, ptr, ptr, i64, i32, i32, i32, %struct.TT_BDFRec_, i64, i64, i64, i64, ptr, ptr, ptr }
%struct.FT_FaceRec_ = type { i64, i64, i64, i64, i64, ptr, ptr, i32, ptr, i32, ptr, %struct.FT_Generic_, %struct.FT_BBox_, i16, i16, i16, i16, i16, i16, i16, i16, ptr, ptr, ptr, ptr, ptr, ptr, %struct.FT_ListRec_, %struct.FT_Generic_, ptr, ptr }
%struct.FT_BBox_ = type { i64, i64, i64, i64 }
%struct.FT_ListRec_ = type { ptr, ptr }
%struct.TTC_HeaderRec_ = type { i64, i64, i64, ptr }
%struct.TT_Header_ = type { i64, i64, i64, i64, i16, i16, [2 x i64], [2 x i64], i16, i16, i16, i16, i16, i16, i16, i16, i16 }
%struct.TT_HoriHeader_ = type { i64, i16, i16, i16, i16, i16, i16, i16, i16, i16, i16, [4 x i16], i16, i16, ptr, ptr }
%struct.TT_MaxProfile_ = type { i64, i16, i16, i16, i16, i16, i16, i16, i16, i16, i16, i16, i16, i16, i16 }
%struct.TT_VertHeader_ = type { i64, i16, i16, i16, i16, i16, i16, i16, i16, i16, i16, [4 x i16], i16, i16, ptr, ptr }
%struct.TT_NameTableRec_ = type { i16, i32, i32, ptr, i32, ptr, ptr }
%struct.TT_OS2_ = type { i16, i16, i16, i16, i16, i16, i16, i16, i16, i16, i16, i16, i16, i16, i16, i16, [10 x i8], i64, i64, i64, i64, [4 x i8], i16, i16, i16, i16, i16, i16, i16, i16, i64, i64, i16, i16, i16, i16, i16, i16, i16 }
%struct.TT_Postscript_ = type { i64, i64, i16, i16, i64, i64, i64, i64, i64 }
%struct.TT_Gasp_ = type { i16, i16, ptr }
%struct.TT_PCLT_ = type { i64, i64, i16, i16, i16, i16, i16, i16, [16 x i8], [8 x i8], [6 x i8], i8, i8, i8, i8 }
%struct.TT_Post_NamesRec_ = type { i8, i16, i16, ptr, ptr }
%struct.FT_Palette_Data_ = type { i16, ptr, ptr, i16, ptr }
%struct.FT_Color_ = type { i8, i8, i8, i8 }
%struct.FT_Generic_ = type { ptr, ptr }
%struct.TT_BDFRec_ = type { ptr, ptr, ptr, i64, i32, i8 }
%struct.CFF_FontRec_ = type { ptr, ptr, ptr, i64, i32, i32, i8, i8, i8, i32, i8, %struct.CFF_IndexRec_, %struct.CFF_IndexRec_, %struct.CFF_IndexRec_, %struct.CFF_EncodingRec_, %struct.CFF_CharsetRec_, %struct.CFF_IndexRec_, %struct.CFF_IndexRec_, %struct.CFF_IndexRec_, %struct.CFF_IndexRec_, ptr, ptr, i32, ptr, ptr, i64, %struct.CFF_SubFontRec_, i32, [256 x ptr], %struct.CFF_FDSelectRec_, ptr, ptr, ptr, ptr, ptr, ptr, %struct.FT_Generic_, %struct.CFF_VStoreRec_, ptr }
%struct.CFF_EncodingRec_ = type { i32, i64, i32, [256 x i16], [256 x i16] }
%struct.CFF_CharsetRec_ = type { i32, i64, ptr, ptr, i32, i32 }
%struct.CFF_IndexRec_ = type { ptr, i64, i32, i32, i8, i64, i64, ptr, ptr }
%struct.CFF_SubFontRec_ = type { %struct.CFF_FontRecDictRec_, %struct.CFF_PrivateRec_, %struct.CFF_BlendRec_, i32, ptr, ptr, ptr, i32, i32, %struct.CFF_IndexRec_, ptr, i32 }
%struct.CFF_FontRecDictRec_ = type { i32, i32, i32, i32, i32, i32, i8, i64, i64, i64, i32, i32, %struct.FT_Matrix_, i8, i64, %struct.FT_Vector_, i64, %struct.FT_BBox_, i64, i64, i64, i64, i64, i64, i64, i32, i32, i32, i64, i64, i64, i64, i64, i64, i64, i64, i32, i16, i16, i64, i32 }
%struct.FT_Matrix_ = type { i64, i64, i64, i64 }
%struct.FT_Vector_ = type { i64, i64 }
%struct.CFF_PrivateRec_ = type { i8, i8, i8, i8, [14 x i64], [10 x i64], [14 x i64], [10 x i64], i64, i64, i64, i64, i64, i8, i8, [13 x i64], [13 x i64], i8, i64, i32, i32, i64, i64, i64, i64, i64, i32, ptr }
%struct.CFF_BlendRec_ = type { i8, i8, ptr, i32, i32, ptr, i32, ptr }
%struct.CFF_FDSelectRec_ = type { i8, i32, ptr, i32, i32, i32, i8 }
%struct.CFF_VStoreRec_ = type { i32, ptr, i16, i32, ptr }
%struct.PS_PrivateRec_ = type { i32, i32, i8, i8, i8, i8, [14 x i16], [10 x i16], [14 x i16], [10 x i16], i64, i32, i32, [1 x i16], [1 x i16], i8, i8, i8, i8, [13 x i16], [13 x i16], i64, i64, i64, [2 x i16] }
%struct.FT_SizeRec_ = type { ptr, %struct.FT_Generic_, %struct.FT_Size_Metrics_, ptr }
%struct.FT_Size_Metrics_ = type { i16, i16, i64, i64, i64, i64, i64, i64 }
%struct.PSH_Globals_FuncsRec_ = type { ptr, ptr, ptr }
%struct.CFF_InternalRec_ = type { ptr, [256 x ptr] }
%struct.FT_Size_InternalRec_ = type { ptr, i32, %struct.FT_Size_Metrics_ }
%struct.CFF_SizeRec_ = type { %struct.FT_SizeRec_, i64 }
%struct.PSHinter_Interface_ = type { ptr, ptr, ptr }

@.str.16 = private unnamed_addr constant [9 x i8] c"pshinter\00", align 1

; Function Attrs: nounwind uwtable
define internal ptr @cff_size_get_globals_funcs(ptr noundef %0) #0 {
  %2 = alloca ptr, align 8
  %3 = alloca ptr, align 8
  %4 = alloca ptr, align 8
  %5 = alloca ptr, align 8
  %6 = alloca ptr, align 8
  store ptr %0, ptr %2, align 8
  %7 = load ptr, ptr %2, align 8
  %8 = getelementptr inbounds %struct.CFF_SizeRec_, ptr %7, i32 0, i32 0
  %9 = getelementptr inbounds %struct.FT_SizeRec_, ptr %8, i32 0, i32 0
  %10 = load ptr, ptr %9, align 8
  store ptr %10, ptr %3, align 8
  %11 = load ptr, ptr %3, align 8
  %12 = getelementptr inbounds %struct.TT_FaceRec_, ptr %11, i32 0, i32 45
  %13 = getelementptr inbounds %struct.FT_Generic_, ptr %12, i32 0, i32 0
  %14 = load ptr, ptr %13, align 8
  store ptr %14, ptr %4, align 8
  %15 = load ptr, ptr %4, align 8
  %16 = getelementptr inbounds %struct.CFF_FontRec_, ptr %15, i32 0, i32 30
  %17 = load ptr, ptr %16, align 8
  store ptr %17, ptr %5, align 8
  %18 = load ptr, ptr %4, align 8
  %19 = getelementptr inbounds %struct.CFF_FontRec_, ptr %18, i32 0, i32 0
  %20 = load ptr, ptr %19, align 8
  %21 = call ptr @FT_Get_Module(ptr noundef %20, ptr noundef @.str.16)
  store ptr %21, ptr %6, align 8
  %22 = load ptr, ptr %6, align 8
  %23 = icmp ne ptr %22, null
  br i1 %23, label %24, label %38

24:                                               ; preds = %1
  %25 = load ptr, ptr %5, align 8
  %26 = icmp ne ptr %25, null
  br i1 %26, label %27, label %38

27:                                               ; preds = %24
  %28 = load ptr, ptr %5, align 8
  %29 = getelementptr inbounds %struct.PSHinter_Interface_, ptr %28, i32 0, i32 0
  %30 = load ptr, ptr %29, align 8
  %31 = icmp ne ptr %30, null
  br i1 %31, label %32, label %38

32:                                               ; preds = %27
  %33 = load ptr, ptr %5, align 8
  %34 = getelementptr inbounds %struct.PSHinter_Interface_, ptr %33, i32 0, i32 0
  %35 = load ptr, ptr %34, align 8
  %36 = load ptr, ptr %6, align 8
  %37 = call ptr %35(ptr noundef %36)
  br label %39

38:                                               ; preds = %27, %24, %1
  br label %39

39:                                               ; preds = %38, %32
  %40 = phi ptr [ %37, %32 ], [ null, %38 ]
  ret ptr %40
}

; Function Attrs: nounwind uwtable
define internal i32 @cff_size_init(ptr noundef %0) #0 {
  %2 = alloca ptr, align 8
  %3 = alloca ptr, align 8
  %4 = alloca i32, align 4
  %5 = alloca ptr, align 8
  %6 = alloca ptr, align 8
  %7 = alloca ptr, align 8
  %8 = alloca ptr, align 8
  %9 = alloca ptr, align 8
  %10 = alloca %struct.PS_PrivateRec_, align 8
  %11 = alloca i32, align 4
  %12 = alloca ptr, align 8
  store ptr %0, ptr %2, align 8
  %13 = load ptr, ptr %2, align 8
  store ptr %13, ptr %3, align 8
  store i32 0, ptr %4, align 4
  %14 = load ptr, ptr %3, align 8
  %15 = call ptr @cff_size_get_globals_funcs(ptr noundef %14)
  store ptr %15, ptr %5, align 8
  %16 = load ptr, ptr %2, align 8
  %17 = getelementptr inbounds %struct.FT_SizeRec_, ptr %16, i32 0, i32 0
  %18 = load ptr, ptr %17, align 8
  %19 = getelementptr inbounds %struct.FT_FaceRec_, ptr %18, i32 0, i32 25
  %20 = load ptr, ptr %19, align 8
  store ptr %20, ptr %6, align 8
  store ptr null, ptr %7, align 8
  %21 = load ptr, ptr %2, align 8
  %22 = getelementptr inbounds %struct.FT_SizeRec_, ptr %21, i32 0, i32 0
  %23 = load ptr, ptr %22, align 8
  store ptr %23, ptr %8, align 8
  %24 = load ptr, ptr %8, align 8
  %25 = getelementptr inbounds %struct.TT_FaceRec_, ptr %24, i32 0, i32 45
  %26 = getelementptr inbounds %struct.FT_Generic_, ptr %25, i32 0, i32 0
  %27 = load ptr, ptr %26, align 8
  store ptr %27, ptr %9, align 8
  %28 = load ptr, ptr %5, align 8
  %29 = icmp ne ptr %28, null
  br i1 %29, label %31, label %30

30:                                               ; preds = %1
  br label %92

31:                                               ; preds = %1
  %32 = load ptr, ptr %6, align 8
  %33 = call ptr @ft_mem_alloc(ptr noundef %32, i64 noundef 2056, ptr noundef %4)
  store ptr %33, ptr %7, align 8
  %34 = load i32, ptr %4, align 4
  %35 = icmp ne i32 %34, 0
  br i1 %35, label %36, label %37

36:                                               ; preds = %31
  br label %92

37:                                               ; preds = %31
  %38 = load ptr, ptr %9, align 8
  %39 = getelementptr inbounds %struct.CFF_FontRec_, ptr %38, i32 0, i32 26
  call void @cff_make_private_dict(ptr noundef %39, ptr noundef %10)
  %40 = load ptr, ptr %5, align 8
  %41 = getelementptr inbounds %struct.PSH_Globals_FuncsRec_, ptr %40, i32 0, i32 0
  %42 = load ptr, ptr %41, align 8
  %43 = load ptr, ptr %6, align 8
  %44 = load ptr, ptr %7, align 8
  %45 = getelementptr inbounds %struct.CFF_InternalRec_, ptr %44, i32 0, i32 0
  %46 = call i32 %42(ptr noundef %43, ptr noundef %10, ptr noundef %45)
  store i32 %46, ptr %4, align 4
  %47 = load i32, ptr %4, align 4
  %48 = icmp ne i32 %47, 0
  br i1 %48, label %49, label %50

49:                                               ; preds = %37
  br label %92

50:                                               ; preds = %37
  %51 = load ptr, ptr %9, align 8
  %52 = getelementptr inbounds %struct.CFF_FontRec_, ptr %51, i32 0, i32 27
  %53 = load i32, ptr %52, align 8
  store i32 %53, ptr %11, align 4
  br label %54

54:                                               ; preds = %81, %50
  %55 = load i32, ptr %11, align 4
  %56 = icmp ugt i32 %55, 0
  br i1 %56, label %57, label %84

57:                                               ; preds = %54
  %58 = load ptr, ptr %9, align 8
  %59 = getelementptr inbounds %struct.CFF_FontRec_, ptr %58, i32 0, i32 28
  %60 = load i32, ptr %11, align 4
  %61 = sub i32 %60, 1
  %62 = zext i32 %61 to i64
  %63 = getelementptr inbounds [256 x ptr], ptr %59, i64 0, i64 %62
  %64 = load ptr, ptr %63, align 8
  store ptr %64, ptr %12, align 8
  %65 = load ptr, ptr %12, align 8
  call void @cff_make_private_dict(ptr noundef %65, ptr noundef %10)
  %66 = load ptr, ptr %5, align 8
  %67 = getelementptr inbounds %struct.PSH_Globals_FuncsRec_, ptr %66, i32 0, i32 0
  %68 = load ptr, ptr %67, align 8
  %69 = load ptr, ptr %6, align 8
  %70 = load ptr, ptr %7, align 8
  %71 = getelementptr inbounds %struct.CFF_InternalRec_, ptr %70, i32 0, i32 1
  %72 = load i32, ptr %11, align 4
  %73 = sub i32 %72, 1
  %74 = zext i32 %73 to i64
  %75 = getelementptr inbounds [256 x ptr], ptr %71, i64 0, i64 %74
  %76 = call i32 %68(ptr noundef %69, ptr noundef %10, ptr noundef %75)
  store i32 %76, ptr %4, align 4
  %77 = load i32, ptr %4, align 4
  %78 = icmp ne i32 %77, 0
  br i1 %78, label %79, label %80

79:                                               ; preds = %57
  br label %92

80:                                               ; preds = %57
  br label %81

81:                                               ; preds = %80
  %82 = load i32, ptr %11, align 4
  %83 = add i32 %82, -1
  store i32 %83, ptr %11, align 4
  br label %54, !llvm.loop !9

84:                                               ; preds = %54
  %85 = load ptr, ptr %7, align 8
  %86 = load ptr, ptr %2, align 8
  %87 = getelementptr inbounds %struct.FT_SizeRec_, ptr %86, i32 0, i32 3
  %88 = load ptr, ptr %87, align 8
  %89 = getelementptr inbounds %struct.FT_Size_InternalRec_, ptr %88, i32 0, i32 0
  store ptr %85, ptr %89, align 8
  %90 = load ptr, ptr %3, align 8
  %91 = getelementptr inbounds %struct.CFF_SizeRec_, ptr %90, i32 0, i32 1
  store i64 4294967295, ptr %91, align 8
  br label %92

92:                                               ; preds = %84, %79, %49, %36, %30
  %93 = load i32, ptr %4, align 4
  %94 = icmp ne i32 %93, 0
  br i1 %94, label %95, label %139

95:                                               ; preds = %92
  %96 = load ptr, ptr %7, align 8
  %97 = icmp ne ptr %96, null
  br i1 %97, label %98, label %134

98:                                               ; preds = %95
  %99 = load ptr, ptr %9, align 8
  %100 = getelementptr inbounds %struct.CFF_FontRec_, ptr %99, i32 0, i32 27
  %101 = load i32, ptr %100, align 8
  store i32 %101, ptr %11, align 4
  br label %102

102:                                              ; preds = %122, %98
  %103 = load i32, ptr %11, align 4
  %104 = icmp ugt i32 %103, 0
  br i1 %104, label %105, label %125

105:                                              ; preds = %102
  br label %106

106:                                              ; preds = %105
  %107 = load ptr, ptr %6, align 8
  %108 = load ptr, ptr %7, align 8
  %109 = getelementptr inbounds %struct.CFF_InternalRec_, ptr %108, i32 0, i32 1
  %110 = load i32, ptr %11, align 4
  %111 = sub i32 %110, 1
  %112 = zext i32 %111 to i64
  %113 = getelementptr inbounds [256 x ptr], ptr %109, i64 0, i64 %112
  %114 = load ptr, ptr %113, align 8
  call void @ft_mem_free(ptr noundef %107, ptr noundef %114)
  %115 = load ptr, ptr %7, align 8
  %116 = getelementptr inbounds %struct.CFF_InternalRec_, ptr %115, i32 0, i32 1
  %117 = load i32, ptr %11, align 4
  %118 = sub i32 %117, 1
  %119 = zext i32 %118 to i64
  %120 = getelementptr inbounds [256 x ptr], ptr %116, i64 0, i64 %119
  store ptr null, ptr %120, align 8
  br label %121

121:                                              ; preds = %106
  br label %122

122:                                              ; preds = %121
  %123 = load i32, ptr %11, align 4
  %124 = add i32 %123, -1
  store i32 %124, ptr %11, align 4
  br label %102, !llvm.loop !10

125:                                              ; preds = %102
  br label %126

126:                                              ; preds = %125
  %127 = load ptr, ptr %6, align 8
  %128 = load ptr, ptr %7, align 8
  %129 = getelementptr inbounds %struct.CFF_InternalRec_, ptr %128, i32 0, i32 0
  %130 = load ptr, ptr %129, align 8
  call void @ft_mem_free(ptr noundef %127, ptr noundef %130)
  %131 = load ptr, ptr %7, align 8
  %132 = getelementptr inbounds %struct.CFF_InternalRec_, ptr %131, i32 0, i32 0
  store ptr null, ptr %132, align 8
  br label %133

133:                                              ; preds = %126
  br label %134

134:                                              ; preds = %133, %95
  br label %135

135:                                              ; preds = %134
  %136 = load ptr, ptr %6, align 8
  %137 = load ptr, ptr %7, align 8
  call void @ft_mem_free(ptr noundef %136, ptr noundef %137)
  store ptr null, ptr %7, align 8
  br label %138

138:                                              ; preds = %135
  br label %139

139:                                              ; preds = %138, %92
  %140 = load i32, ptr %4, align 4
  ret i32 %140
}