; Function Attrs: nounwind uwtable
define internal i32 @cff_size_init(ptr nocapture noundef %0) #4 {
  %2 = alloca i32, align 4
  %3 = alloca %struct.PS_PrivateRec_, align 8
  store i32 0, ptr %2, align 4
  %.val = load ptr, ptr %0, align 8
  %4 = getelementptr i8, ptr %.val, i64 1168
  %.val.val = load ptr, ptr %4, align 8
  %.val.val.val = load ptr, ptr %.val.val, align 8
  %5 = getelementptr i8, ptr %.val.val, i64 4952
  %.val.val.val46 = load ptr, ptr %5, align 8
  %6 = tail call ptr @FT_Get_Module(ptr noundef %.val.val.val, ptr noundef nonnull @.str.16) #20
  %7 = icmp ne ptr %6, null
  %8 = icmp ne ptr %.val.val.val46, null
  %or.cond.i = select i1 %7, i1 %8, i1 false
  br i1 %or.cond.i, label %9, label %cff_size_get_globals_funcs.exit.thread

9:                                                ; preds = %1
  %10 = load ptr, ptr %.val.val.val46, align 8
  %.not.i = icmp eq ptr %10, null
  br i1 %.not.i, label %cff_size_get_globals_funcs.exit.thread, label %cff_size_get_globals_funcs.exit

cff_size_get_globals_funcs.exit:                  ; preds = %9
  %11 = tail call ptr %10(ptr noundef nonnull %6) #20
  %12 = load ptr, ptr %0, align 8
  %13 = getelementptr inbounds i8, ptr %12, i64 184
  %14 = load ptr, ptr %13, align 8
  %15 = getelementptr inbounds i8, ptr %12, i64 1168
  %16 = load ptr, ptr %15, align 8
  %.not = icmp eq ptr %11, null
  br i1 %.not, label %cff_size_get_globals_funcs.exit.thread, label %17

17:                                               ; preds = %cff_size_get_globals_funcs.exit
  %18 = call ptr @ft_mem_alloc(ptr noundef %14, i64 noundef 2056, ptr noundef nonnull %2) #20
  %19 = load i32, ptr %2, align 4
  %.not39 = icmp eq i32 %19, 0
  br i1 %.not39, label %20, label %.thread

20:                                               ; preds = %17
  %21 = getelementptr inbounds i8, ptr %16, i64 1640
  call fastcc void @cff_make_private_dict(ptr noundef nonnull %21, ptr noundef nonnull %3)
  %22 = load ptr, ptr %11, align 8
  %23 = call i32 %22(ptr noundef %14, ptr noundef nonnull %3, ptr noundef %18) #20
  store i32 %23, ptr %2, align 4
  %.not40 = icmp eq i32 %23, 0
  br i1 %.not40, label %24, label %.thread

24:                                               ; preds = %20
  %25 = getelementptr inbounds i8, ptr %16, i64 2864
  %26 = load i32, ptr %25, align 8
  %27 = getelementptr inbounds i8, ptr %16, i64 2872
  %28 = getelementptr inbounds i8, ptr %18, i64 8
  %29 = zext i32 %26 to i64
  br label %30

30:                                               ; preds = %31, %24
  %indvars.iv = phi i64 [ %32, %31 ], [ %29, %24 ]
  %.not41 = icmp eq i64 %indvars.iv, 0
  br i1 %.not41, label %38, label %31

31:                                               ; preds = %30
  %32 = add nsw i64 %indvars.iv, -1
  %33 = getelementptr inbounds [256 x ptr], ptr %27, i64 0, i64 %32
  %34 = load ptr, ptr %33, align 8
  call fastcc void @cff_make_private_dict(ptr noundef %34, ptr noundef nonnull %3)
  %35 = load ptr, ptr %11, align 8
  %36 = getelementptr inbounds [256 x ptr], ptr %28, i64 0, i64 %32
  %37 = call i32 %35(ptr noundef %14, ptr noundef nonnull %3, ptr noundef nonnull %36) #20
  store i32 %37, ptr %2, align 4
  %.not42 = icmp eq i32 %37, 0
  br i1 %.not42, label %30, label %.thread, !llvm.loop !10

38:                                               ; preds = %30
  %39 = getelementptr inbounds i8, ptr %0, i64 80
  %40 = load ptr, ptr %39, align 8
  store ptr %18, ptr %40, align 8
  %41 = getelementptr inbounds i8, ptr %0, i64 88
  store i64 4294967295, ptr %41, align 8
  br label %cff_size_get_globals_funcs.exit.thread

.thread:                                          ; preds = %31, %17, %20
  %.not44 = icmp eq ptr %18, null
  br i1 %.not44, label %52, label %42

42:                                               ; preds = %.thread
  %43 = getelementptr inbounds i8, ptr %16, i64 2864
  %44 = load i32, ptr %43, align 8
  %.not4553 = icmp eq i32 %44, 0
  br i1 %.not4553, label %._crit_edge, label %.lr.ph

.lr.ph:                                           ; preds = %42
  %45 = getelementptr inbounds i8, ptr %18, i64 8
  %46 = zext i32 %44 to i64
  br label %47

47:                                               ; preds = %.lr.ph, %47
  %indvars.iv56 = phi i64 [ %46, %.lr.ph ], [ %48, %47 ]
  %48 = add nsw i64 %indvars.iv56, -1
  %49 = getelementptr inbounds [256 x ptr], ptr %45, i64 0, i64 %48
  %50 = load ptr, ptr %49, align 8
  call void @ft_mem_free(ptr noundef %14, ptr noundef %50) #20
  store ptr null, ptr %49, align 8
  %.not45.wide = icmp eq i64 %48, 0
  br i1 %.not45.wide, label %._crit_edge, label %47, !llvm.loop !11

._crit_edge:                                      ; preds = %47, %42
  %51 = load ptr, ptr %18, align 8
  call void @ft_mem_free(ptr noundef %14, ptr noundef %51) #20
  store ptr null, ptr %18, align 8
  br label %52

52:                                               ; preds = %.thread, %._crit_edge
  call void @ft_mem_free(ptr noundef %14, ptr noundef %18) #20
  %.pre = load i32, ptr %2, align 4
  br label %cff_size_get_globals_funcs.exit.thread

cff_size_get_globals_funcs.exit.thread:           ; preds = %38, %cff_size_get_globals_funcs.exit, %9, %1, %52
  %53 = phi i32 [ %.pre, %52 ], [ 0, %1 ], [ 0, %9 ], [ 0, %cff_size_get_globals_funcs.exit ], [ 0, %38 ]
  ret i32 %53
}